target datalayout = "e-m:e-p270:32:32-p271:32:32-p272:64:64-i64:64-i128:128-f80:128-n8:16:32:64-S128"
target triple = "x86_64-pc-linux-gnu"

%struct.tr2_tgt = type { ptr, ptr, ptr, ptr, ptr, ptr, ptr, ptr, ptr, ptr, ptr, ptr, ptr, ptr, ptr, ptr, ptr, ptr, ptr, ptr, ptr, ptr, ptr, ptr, ptr, ptr, ptr, ptr, ptr, ptr }

@trace2_enabled = internal global i32 0, align 4
@.str = private unnamed_addr constant [18 x i8] c"GIT_TRACE2_REDACT\00", align 1
@trace2_redact = internal global i32 1, align 4
@tr2_tgt_builtins = internal global [4 x ptr] [ptr @tr2_tgt_normal, ptr @tr2_tgt_perf, ptr @tr2_tgt_event, ptr null], align 16

; Function Attrs: nounwind uwtable
define internal i32 @tr2_tgt_want_builtins() #0 {
  %1 = alloca ptr, align 8
  %2 = alloca i32, align 4
  %3 = alloca i32, align 4
  call void @llvm.lifetime.start.p0(i64 8, ptr %1) #9
  call void @llvm.lifetime.start.p0(i64 4, ptr %2) #9
  call void @llvm.lifetime.start.p0(i64 4, ptr %3) #9
  store i32 0, ptr %3, align 4, !tbaa !9
  store i32 0, ptr %2, align 4, !tbaa !9
  %4 = load i32, ptr %2, align 4, !tbaa !9
  %5 = sext i32 %4 to i64
  %6 = getelementptr inbounds [4 x ptr], ptr @tr2_tgt_builtins, i64 0, i64 %5
  %7 = load ptr, ptr %6, align 8, !tbaa !11
  store ptr %7, ptr %1, align 8, !tbaa !11
  br label %8

8:                                                ; preds = %21, %0
  %9 = load ptr, ptr %1, align 8, !tbaa !11
  %10 = icmp ne ptr %9, null
  br i1 %10, label %11, label %28

11:                                               ; preds = %8
  %12 = load ptr, ptr %1, align 8, !tbaa !11
  %13 = getelementptr inbounds nuw %struct.tr2_tgt, ptr %12, i32 0, i32 1
  %14 = load ptr, ptr %13, align 8, !tbaa !19
  %15 = call i32 %14()
  %16 = icmp ne i32 %15, 0
  br i1 %16, label %17, label %20

17:                                               ; preds = %11
  %18 = load i32, ptr %3, align 4, !tbaa !9
  %19 = add nsw i32 %18, 1
  store i32 %19, ptr %3, align 4, !tbaa !9
  br label %20

20:                                               ; preds = %17, %11
  br label %21

21:                                               ; preds = %20
  %22 = load i32, ptr %2, align 4, !tbaa !9
  %23 = add nsw i32 %22, 1
  store i32 %23, ptr %2, align 4, !tbaa !9
  %24 = load i32, ptr %2, align 4, !tbaa !9
  %25 = sext i32 %24 to i64
  %26 = getelementptr inbounds [4 x ptr], ptr @tr2_tgt_builtins, i64 0, i64 %25
  %27 = load ptr, ptr %26, align 8, !tbaa !11
  store ptr %27, ptr %1, align 8, !tbaa !11
  br label %8, !llvm.loop !20

28:                                               ; preds = %8
  %29 = load i32, ptr %3, align 4, !tbaa !9
  call void @llvm.lifetime.end.p0(i64 4, ptr %3) #9
  call void @llvm.lifetime.end.p0(i64 4, ptr %2) #9
  call void @llvm.lifetime.end.p0(i64 8, ptr %1) #9
  ret i32 %29
}

; Function Attrs: nounwind uwtable
define dso_local void @trace2_initialize_fl(ptr noundef %0, i32 noundef %1) #0 {
  %3 = alloca ptr, align 8
  %4 = alloca i32, align 4
  %5 = alloca ptr, align 8
  %6 = alloca i32, align 4
  %7 = alloca i32, align 4
  store ptr %0, ptr %3, align 8, !tbaa !4
  store i32 %1, ptr %4, align 4, !tbaa !9
  call void @llvm.lifetime.start.p0(i64 8, ptr %5) #9
  call void @llvm.lifetime.start.p0(i64 4, ptr %6) #9
  %8 = load i32, ptr @trace2_enabled, align 4, !tbaa !9
  %9 = icmp ne i32 %8, 0
  br i1 %9, label %10, label %11

10:                                               ; preds = %2
  store i32 1, ptr %7, align 4
  br label %57

11:                                               ; preds = %2
  call void @tr2_sysenv_load()
  %12 = call i32 @tr2_tgt_want_builtins()
  %13 = icmp ne i32 %12, 0
  br i1 %13, label %15, label %14

14:                                               ; preds = %11
  store i32 1, ptr %7, align 4
  br label %57

15:                                               ; preds = %11
  store i32 1, ptr @trace2_enabled, align 4, !tbaa !9
  %16 = call i32 @git_env_bool(ptr noundef @.str, i32 noundef 1)
  %17 = icmp ne i32 %16, 0
  br i1 %17, label %19, label %18

18:                                               ; preds = %15
  store i32 0, ptr @trace2_redact, align 4, !tbaa !9
  br label %19

19:                                               ; preds = %18, %15
  %20 = call ptr @tr2_sid_get()
  %21 = call i32 @atexit(ptr noundef @tr2main_atexit_handler) #9
  %22 = call i32 @sigchain_push(i32 noundef 13, ptr noundef @tr2main_signal_handler)
  call void @tr2tls_init()
  store i32 0, ptr %6, align 4, !tbaa !9
  %23 = load i32, ptr %6, align 4, !tbaa !9
  %24 = sext i32 %23 to i64
  %25 = getelementptr inbounds [4 x ptr], ptr @tr2_tgt_builtins, i64 0, i64 %24
  %26 = load ptr, ptr %25, align 8, !tbaa !11
  store ptr %26, ptr %5, align 8, !tbaa !11
  br label %27

27:                                               ; preds = %49, %19
  %28 = load ptr, ptr %5, align 8, !tbaa !11
  %29 = icmp ne ptr %28, null
  br i1 %29, label %30, label %56

30:                                               ; preds = %27
  %31 = load ptr, ptr %5, align 8, !tbaa !11
  %32 = getelementptr inbounds nuw %struct.tr2_tgt, ptr %31, i32 0, i32 0
  %33 = load ptr, ptr %32, align 8, !tbaa !13
  %34 = call i32 @tr2_dst_trace_want(ptr noundef %33)
  %35 = icmp ne i32 %34, 0
  br i1 %35, label %36, label %48

36:                                               ; preds = %30
  %37 = load ptr, ptr %5, align 8, !tbaa !11
  %38 = getelementptr inbounds nuw %struct.tr2_tgt, ptr %37, i32 0, i32 3
  %39 = load ptr, ptr %38, align 8, !tbaa !16
  %40 = icmp ne ptr %39, null
  br i1 %40, label %41, label %47

41:                                               ; preds = %36
  %42 = load ptr, ptr %5, align 8, !tbaa !11
  %43 = getelementptr inbounds nuw %struct.tr2_tgt, ptr %42, i32 0, i32 3
  %44 = load ptr, ptr %43, align 8, !tbaa !16
  %45 = load ptr, ptr %3, align 8, !tbaa !4
  %46 = load i32, ptr %4, align 4, !tbaa !9
  call void %44(ptr noundef %45, i32 noundef %46)
  br label %47

47:                                               ; preds = %41, %36
  br label %48

48:                                               ; preds = %47, %30
  br label %49

49:                                               ; preds = %48
  %50 = load i32, ptr %6, align 4, !tbaa !9
  %51 = add nsw i32 %50, 1
  store i32 %51, ptr %6, align 4, !tbaa !9
  %52 = load i32, ptr %6, align 4, !tbaa !9
  %53 = sext i32 %52 to i64
  %54 = getelementptr inbounds [4 x ptr], ptr @tr2_tgt_builtins, i64 0, i64 %53
  %55 = load ptr, ptr %54, align 8, !tbaa !11
  store ptr %55, ptr %5, align 8, !tbaa !11
  br label %27, !llvm.loop !17

56:                                               ; preds = %27
  store i32 0, ptr %7, align 4
  br label %57

57:                                               ; preds = %56, %14, %10
  call void @llvm.lifetime.end.p0(i64 4, ptr %6) #9
  call void @llvm.lifetime.end.p0(i64 8, ptr %5) #9
  %58 = load i32, ptr %7, align 4
  switch i32 %58, label %60 [
    i32 0, label %59
    i32 1, label %59
  ]

59:                                               ; preds = %57, %57
  ret void

60:                                               ; preds = %57
  unreachable
}