; Function Attrs: nounwind uwtable
define dso_local void @trace2_initialize_fl(ptr noundef %0, i32 noundef %1) local_unnamed_addr #0 {
  %.b = load i1, ptr @trace2_enabled, align 4
  br i1 %.b, label %.loopexit, label %3

3:                                                ; preds = %2
  tail call void @tr2_sysenv_load() #11
  br label %4

4:                                                ; preds = %4, %3
  %indvars.iv.i = phi i64 [ 0, %3 ], [ %indvars.iv.next.i, %4 ]
  %.011.i = phi i32 [ 0, %3 ], [ %spec.select.i, %4 ]
  %.079.i = phi ptr [ @tr2_tgt_normal, %3 ], [ %10, %4 ]
  %5 = getelementptr inbounds nuw i8, ptr %.079.i, i64 8
  %6 = load ptr, ptr %5, align 8, !tbaa !4
  %7 = tail call i32 %6() #11
  %.not8.i = icmp ne i32 %7, 0
  %8 = zext i1 %.not8.i to i32
  %spec.select.i = add nuw nsw i32 %.011.i, %8
  %indvars.iv.next.i = add nuw nsw i64 %indvars.iv.i, 1
  %9 = getelementptr inbounds nuw [4 x ptr], ptr @tr2_tgt_builtins, i64 0, i64 %indvars.iv.next.i
  %10 = load ptr, ptr %9, align 8, !tbaa !10
  %.not.i = icmp eq i64 %indvars.iv.next.i, 3
  br i1 %.not.i, label %tr2_tgt_want_builtins.exit, label %4, !llvm.loop !12

tr2_tgt_want_builtins.exit:                       ; preds = %4
  %.not = icmp eq i32 %spec.select.i, 0
  br i1 %.not, label %.loopexit, label %11

11:                                               ; preds = %tr2_tgt_want_builtins.exit
  store i1 true, ptr @trace2_enabled, align 4
  %12 = tail call i32 @git_env_bool(ptr noundef nonnull @.str, i32 noundef 1) #11
  %.not10 = icmp eq i32 %12, 0
  br i1 %.not10, label %13, label %14

13:                                               ; preds = %11
  store i1 true, ptr @trace2_redact, align 4
  br label %14

14:                                               ; preds = %13, %11
  %15 = tail call ptr @tr2_sid_get() #11
  %16 = tail call i32 @atexit(ptr noundef nonnull @tr2main_atexit_handler) #11
  %17 = tail call i32 @sigchain_push(i32 noundef 13, ptr noundef nonnull @tr2main_signal_handler) #11
  tail call void @tr2tls_init() #11
  br label %18

18:                                               ; preds = %14, %25
  %indvars.iv = phi i64 [ 0, %14 ], [ %indvars.iv.next, %25 ]
  %.0814 = phi ptr [ @tr2_tgt_normal, %14 ], [ %27, %25 ]
  %19 = load ptr, ptr %.0814, align 8, !tbaa !14
  %20 = tail call i32 @tr2_dst_trace_want(ptr noundef %19) #11
  %.not12 = icmp eq i32 %20, 0
  br i1 %.not12, label %25, label %21

21:                                               ; preds = %18
  %22 = getelementptr inbounds nuw i8, ptr %.0814, i64 24
  %23 = load ptr, ptr %22, align 8, !tbaa !15
  %.not13 = icmp eq ptr %23, null
  br i1 %.not13, label %25, label %24

24:                                               ; preds = %21
  tail call void %23(ptr noundef %0, i32 noundef %1) #11
  br label %25

25:                                               ; preds = %18, %24, %21
  %indvars.iv.next = add nuw nsw i64 %indvars.iv, 1
  %26 = getelementptr inbounds nuw [4 x ptr], ptr @tr2_tgt_builtins, i64 0, i64 %indvars.iv.next
  %27 = load ptr, ptr %26, align 8, !tbaa !10
  %.not11 = icmp eq i64 %indvars.iv.next, 3
  br i1 %.not11, label %.loopexit, label %18, !llvm.loop !16

.loopexit:                                        ; preds = %25, %tr2_tgt_want_builtins.exit, %2
  ret void
}